target datalayout = "e-m:e-p270:32:32-p271:32:32-p272:64:64-i64:64-i128:128-f80:128-n8:16:32:64-S128"
target triple = "x86_64-pc-linux-gnu"

%"struct.ue2::unicase" = type { i32, i32 }
%"struct.__gnu_cxx::__ops::_Iter_less_val" = type { i8 }

; Function Attrs: mustprogress nounwind uwtable
define internal noundef zeroext i1 @_ZN3ue2ltERKNS_7unicaseES2_(ptr noundef nonnull align 4 dereferenceable(8) %0, ptr noundef nonnull align 4 dereferenceable(8) %1) #3 {
  %3 = alloca i1, align 1
  %4 = alloca ptr, align 8
  %5 = alloca ptr, align 8
  store ptr %0, ptr %4, align 8
  store ptr %1, ptr %5, align 8
  %6 = load ptr, ptr %4, align 8
  %7 = getelementptr inbounds nuw %"struct.ue2::unicase", ptr %6, i32 0, i32 0
  %8 = load i32, ptr %7, align 4
  %9 = load ptr, ptr %5, align 8
  %10 = getelementptr inbounds nuw %"struct.ue2::unicase", ptr %9, i32 0, i32 0
  %11 = load i32, ptr %10, align 4
  %12 = icmp ult i32 %8, %11
  br i1 %12, label %13, label %14

13:                                               ; preds = %2
  store i1 true, ptr %3, align 1
  br label %31

14:                                               ; preds = %2
  %15 = load ptr, ptr %4, align 8
  %16 = getelementptr inbounds nuw %"struct.ue2::unicase", ptr %15, i32 0, i32 0
  %17 = load i32, ptr %16, align 4
  %18 = load ptr, ptr %5, align 8
  %19 = getelementptr inbounds nuw %"struct.ue2::unicase", ptr %18, i32 0, i32 0
  %20 = load i32, ptr %19, align 4
  %21 = icmp ugt i32 %17, %20
  br i1 %21, label %22, label %23

22:                                               ; preds = %14
  store i1 false, ptr %3, align 1
  br label %31

23:                                               ; preds = %14
  %24 = load ptr, ptr %4, align 8
  %25 = getelementptr inbounds nuw %"struct.ue2::unicase", ptr %24, i32 0, i32 1
  %26 = load i32, ptr %25, align 4
  %27 = load ptr, ptr %5, align 8
  %28 = getelementptr inbounds nuw %"struct.ue2::unicase", ptr %27, i32 0, i32 1
  %29 = load i32, ptr %28, align 4
  %30 = icmp ult i32 %26, %29
  store i1 %30, ptr %3, align 1
  br label %31

31:                                               ; preds = %23, %22, %13
  %32 = load i1, ptr %3, align 1
  ret i1 %32
}

; Function Attrs: inlinehint mustprogress nounwind uwtable
define linkonce_odr hidden void @_ZSt9__advanceIPKN3ue27unicaseElEvRT_T0_St26random_access_iterator_tag(ptr noundef nonnull align 8 dereferenceable(8) %0, i64 noundef %1) #2 comdat {
  %3 = alloca ptr, align 8
  %4 = alloca i64, align 8
  store ptr %0, ptr %3, align 8
  store i64 %1, ptr %4, align 8
  %5 = load i64, ptr %4, align 8
  %6 = call i1 @llvm.is.constant.i64(i64 %5)
  br i1 %6, label %7, label %14

7:                                                ; preds = %2
  %8 = load i64, ptr %4, align 8
  %9 = icmp eq i64 %8, 1
  br i1 %9, label %10, label %14

10:                                               ; preds = %7
  %11 = load ptr, ptr %3, align 8
  %12 = load ptr, ptr %11, align 8
  %13 = getelementptr inbounds nuw %"struct.ue2::unicase", ptr %12, i32 1
  store ptr %13, ptr %11, align 8
  br label %30

14:                                               ; preds = %7, %2
  %15 = load i64, ptr %4, align 8
  %16 = call i1 @llvm.is.constant.i64(i64 %15)
  br i1 %16, label %17, label %24

17:                                               ; preds = %14
  %18 = load i64, ptr %4, align 8
  %19 = icmp eq i64 %18, -1
  br i1 %19, label %20, label %24

20:                                               ; preds = %17
  %21 = load ptr, ptr %3, align 8
  %22 = load ptr, ptr %21, align 8
  %23 = getelementptr inbounds %"struct.ue2::unicase", ptr %22, i32 -1
  store ptr %23, ptr %21, align 8
  br label %29

24:                                               ; preds = %17, %14
  %25 = load i64, ptr %4, align 8
  %26 = load ptr, ptr %3, align 8
  %27 = load ptr, ptr %26, align 8
  %28 = getelementptr inbounds %"struct.ue2::unicase", ptr %27, i64 %25
  store ptr %28, ptr %26, align 8
  br label %29

29:                                               ; preds = %24, %20
  br label %30

30:                                               ; preds = %29, %10
  ret void
}

; Function Attrs: inlinehint mustprogress nounwind uwtable
define linkonce_odr hidden noundef i64 @_ZSt10__distanceIPKN3ue27unicaseEENSt15iterator_traitsIT_E15difference_typeES5_S5_St26random_access_iterator_tag(ptr noundef %0, ptr noundef %1) #2 comdat {
  %3 = alloca ptr, align 8
  %4 = alloca ptr, align 8
  store ptr %0, ptr %3, align 8
  store ptr %1, ptr %4, align 8
  %5 = load ptr, ptr %4, align 8
  %6 = load ptr, ptr %3, align 8
  %7 = ptrtoint ptr %5 to i64
  %8 = ptrtoint ptr %6 to i64
  %9 = sub i64 %7, %8
  %10 = sdiv exact i64 %9, 8
  ret i64 %10
}

; Function Attrs: inlinehint mustprogress nounwind uwtable
define linkonce_odr hidden void @_ZSt19__iterator_categoryIPKN3ue27unicaseEENSt15iterator_traitsIT_E17iterator_categoryERKS5_(ptr noundef nonnull align 8 dereferenceable(8) %0) #2 comdat {
  %2 = alloca ptr, align 8
  store ptr %0, ptr %2, align 8
  ret void
}

; Function Attrs: mustprogress uwtable
define linkonce_odr hidden noundef zeroext i1 @_ZNK9__gnu_cxx5__ops14_Iter_less_valclIPKN3ue27unicaseES5_EEbT_RT0_(ptr noundef nonnull align 1 dereferenceable(1) %0, ptr noundef %1, ptr noundef nonnull align 4 dereferenceable(8) %2) #0 comdat align 2 {
  %4 = alloca ptr, align 8
  %5 = alloca ptr, align 8
  %6 = alloca ptr, align 8
  store ptr %0, ptr %4, align 8
  store ptr %1, ptr %5, align 8
  store ptr %2, ptr %6, align 8
  %7 = load ptr, ptr %5, align 8
  %8 = load ptr, ptr %6, align 8
  %9 = call noundef zeroext i1 @_ZN3ue2ltERKNS_7unicaseES2_(ptr noundef nonnull align 4 dereferenceable(8) %7, ptr noundef nonnull align 4 dereferenceable(8) %8)
  ret i1 %9
}

; Function Attrs: inlinehint mustprogress uwtable
define linkonce_odr hidden void @_ZSt7advanceIPKN3ue27unicaseElEvRT_T0_(ptr noundef nonnull align 8 dereferenceable(8) %0, i64 noundef %1) #4 comdat {
  %3 = alloca ptr, align 8
  %4 = alloca i64, align 8
  %5 = alloca i64, align 8
  store ptr %0, ptr %3, align 8
  store i64 %1, ptr %4, align 8
  call void @llvm.lifetime.start.p0(i64 8, ptr %5) #13
  %6 = load i64, ptr %4, align 8
  store i64 %6, ptr %5, align 8
  %7 = load ptr, ptr %3, align 8
  %8 = load i64, ptr %5, align 8
  %9 = load ptr, ptr %3, align 8
  call void @_ZSt19__iterator_categoryIPKN3ue27unicaseEENSt15iterator_traitsIT_E17iterator_categoryERKS5_(ptr noundef nonnull align 8 dereferenceable(8) %9)
  call void @_ZSt9__advanceIPKN3ue27unicaseElEvRT_T0_St26random_access_iterator_tag(ptr noundef nonnull align 8 dereferenceable(8) %7, i64 noundef %8)
  call void @llvm.lifetime.end.p0(i64 8, ptr %5) #13
  ret void
}

; Function Attrs: inlinehint mustprogress uwtable
define linkonce_odr hidden noundef i64 @_ZSt8distanceIPKN3ue27unicaseEENSt15iterator_traitsIT_E15difference_typeES5_S5_(ptr noundef %0, ptr noundef %1) #4 comdat {
  %3 = alloca ptr, align 8
  %4 = alloca ptr, align 8
  store ptr %0, ptr %3, align 8
  store ptr %1, ptr %4, align 8
  %5 = load ptr, ptr %3, align 8
  %6 = load ptr, ptr %4, align 8
  call void @_ZSt19__iterator_categoryIPKN3ue27unicaseEENSt15iterator_traitsIT_E17iterator_categoryERKS5_(ptr noundef nonnull align 8 dereferenceable(8) %3)
  %7 = call noundef i64 @_ZSt10__distanceIPKN3ue27unicaseEENSt15iterator_traitsIT_E15difference_typeES5_S5_St26random_access_iterator_tag(ptr noundef %5, ptr noundef %6)
  ret i64 %7
}

; Function Attrs: mustprogress uwtable
define linkonce_odr hidden noundef ptr @_ZSt13__lower_boundIPKN3ue27unicaseES1_N9__gnu_cxx5__ops14_Iter_less_valEET_S7_S7_RKT0_T1_(ptr noundef %0, ptr noundef %1, ptr noundef nonnull align 4 dereferenceable(8) %2) #0 comdat {
  %4 = alloca %"struct.__gnu_cxx::__ops::_Iter_less_val", align 1
  %5 = alloca ptr, align 8
  %6 = alloca ptr, align 8
  %7 = alloca ptr, align 8
  %8 = alloca i64, align 8
  %9 = alloca i64, align 8
  %10 = alloca ptr, align 8
  store ptr %0, ptr %5, align 8
  store ptr %1, ptr %6, align 8
  store ptr %2, ptr %7, align 8
  call void @llvm.lifetime.start.p0(i64 8, ptr %8) #13
  %11 = load ptr, ptr %5, align 8
  %12 = load ptr, ptr %6, align 8
  %13 = call noundef i64 @_ZSt8distanceIPKN3ue27unicaseEENSt15iterator_traitsIT_E15difference_typeES5_S5_(ptr noundef %11, ptr noundef %12)
  store i64 %13, ptr %8, align 8
  br label %14

14:                                               ; preds = %35, %3
  %15 = load i64, ptr %8, align 8
  %16 = icmp sgt i64 %15, 0
  br i1 %16, label %17, label %36

17:                                               ; preds = %14
  call void @llvm.lifetime.start.p0(i64 8, ptr %9) #13
  %18 = load i64, ptr %8, align 8
  %19 = ashr i64 %18, 1
  store i64 %19, ptr %9, align 8
  call void @llvm.lifetime.start.p0(i64 8, ptr %10) #13
  %20 = load ptr, ptr %5, align 8
  store ptr %20, ptr %10, align 8
  %21 = load i64, ptr %9, align 8
  call void @_ZSt7advanceIPKN3ue27unicaseElEvRT_T0_(ptr noundef nonnull align 8 dereferenceable(8) %10, i64 noundef %21)
  %22 = load ptr, ptr %10, align 8
  %23 = load ptr, ptr %7, align 8
  %24 = call noundef zeroext i1 @_ZNK9__gnu_cxx5__ops14_Iter_less_valclIPKN3ue27unicaseES5_EEbT_RT0_(ptr noundef nonnull align 1 dereferenceable(1) %4, ptr noundef %22, ptr noundef nonnull align 4 dereferenceable(8) %23)
  br i1 %24, label %25, label %33

25:                                               ; preds = %17
  %26 = load ptr, ptr %10, align 8
  store ptr %26, ptr %5, align 8
  %27 = load ptr, ptr %5, align 8
  %28 = getelementptr inbounds nuw %"struct.ue2::unicase", ptr %27, i32 1
  store ptr %28, ptr %5, align 8
  %29 = load i64, ptr %8, align 8
  %30 = load i64, ptr %9, align 8
  %31 = sub nsw i64 %29, %30
  %32 = sub nsw i64 %31, 1
  store i64 %32, ptr %8, align 8
  br label %35

33:                                               ; preds = %17
  %34 = load i64, ptr %9, align 8
  store i64 %34, ptr %8, align 8
  br label %35

35:                                               ; preds = %33, %25
  call void @llvm.lifetime.end.p0(i64 8, ptr %10) #13
  call void @llvm.lifetime.end.p0(i64 8, ptr %9) #13
  br label %14, !llvm.loop !186

36:                                               ; preds = %14
  %37 = load ptr, ptr %5, align 8
  call void @llvm.lifetime.end.p0(i64 8, ptr %8) #13
  ret ptr %37
}

; Function Attrs: inlinehint mustprogress nounwind uwtable
define linkonce_odr hidden void @_ZN9__gnu_cxx5__ops15__iter_less_valEv() #2 comdat {
  ret void
}

; Function Attrs: inlinehint mustprogress uwtable
define linkonce_odr hidden noundef ptr @_ZSt11lower_boundIPKN3ue27unicaseES1_ET_S4_S4_RKT0_(ptr noundef %0, ptr noundef %1, ptr noundef nonnull align 4 dereferenceable(8) %2) #4 comdat {
  %4 = alloca ptr, align 8
  %5 = alloca ptr, align 8
  %6 = alloca ptr, align 8
  store ptr %0, ptr %4, align 8
  store ptr %1, ptr %5, align 8
  store ptr %2, ptr %6, align 8
  %7 = load ptr, ptr %4, align 8
  %8 = load ptr, ptr %5, align 8
  %9 = load ptr, ptr %6, align 8
  call void @_ZN9__gnu_cxx5__ops15__iter_less_valEv()
  %10 = call noundef ptr @_ZSt13__lower_boundIPKN3ue27unicaseES1_N9__gnu_cxx5__ops14_Iter_less_valEET_S7_S7_RKT0_T1_(ptr noundef %7, ptr noundef %8, ptr noundef nonnull align 4 dereferenceable(8) %9)
  ret ptr %10
}

; Function Attrs: inlinehint mustprogress nounwind uwtable
define linkonce_odr hidden noundef ptr @_ZSt3endIKN3ue27unicaseELm2254EEPT_RAT0__S3_(ptr noundef nonnull align 4 dereferenceable(18032) %0) #2 comdat {
  %2 = alloca ptr, align 8
  store ptr %0, ptr %2, align 8
  %3 = load ptr, ptr %2, align 8
  %4 = getelementptr inbounds [2254 x %"struct.ue2::unicase"], ptr %3, i64 0, i64 0
  %5 = getelementptr inbounds nuw %"struct.ue2::unicase", ptr %4, i64 2254
  ret ptr %5
}

; Function Attrs: inlinehint mustprogress nounwind uwtable
define linkonce_odr hidden noundef ptr @_ZSt5beginIKN3ue27unicaseELm2254EEPT_RAT0__S3_(ptr noundef nonnull align 4 dereferenceable(18032) %0) #2 comdat {
  %2 = alloca ptr, align 8
  store ptr %0, ptr %2, align 8
  %3 = load ptr, ptr %2, align 8
  %4 = getelementptr inbounds [2254 x %"struct.ue2::unicase"], ptr %3, i64 0, i64 0
  ret ptr %4
}

; Function Attrs: mustprogress uwtable
define hidden noundef zeroext i1 @_ZN3ue29flip_caseEPj(ptr noundef %0) #0 {
  %2 = alloca i1, align 1
  %3 = alloca ptr, align 8
  %4 = alloca %"struct.ue2::unicase", align 4
  %5 = alloca ptr, align 8
  %6 = alloca ptr, align 8
  %7 = alloca ptr, align 8
  %8 = alloca i32, align 4
  store ptr %0, ptr %3, align 8
  call void @llvm.lifetime.start.p0(i64 8, ptr %4) #13
  %9 = getelementptr inbounds nuw %"struct.ue2::unicase", ptr %4, i32 0, i32 0
  %10 = load ptr, ptr %3, align 8
  %11 = load i32, ptr %10, align 4
  store i32 %11, ptr %9, align 4
  %12 = getelementptr inbounds nuw %"struct.ue2::unicase", ptr %4, i32 0, i32 1
  store i32 0, ptr %12, align 4
  call void @llvm.lifetime.start.p0(i64 8, ptr %5) #13
  %13 = call noundef ptr @_ZSt5beginIKN3ue27unicaseELm2254EEPT_RAT0__S3_(ptr noundef nonnull align 4 dereferenceable(18032) @_ZN3ue2L16ucp_caseless_defE) #13
  store ptr %13, ptr %5, align 8
  call void @llvm.lifetime.start.p0(i64 8, ptr %6) #13
  %14 = call noundef ptr @_ZSt3endIKN3ue27unicaseELm2254EEPT_RAT0__S3_(ptr noundef nonnull align 4 dereferenceable(18032) @_ZN3ue2L16ucp_caseless_defE) #13
  store ptr %14, ptr %6, align 8
  call void @llvm.lifetime.start.p0(i64 8, ptr %7) #13
  %15 = load ptr, ptr %5, align 8
  %16 = load ptr, ptr %6, align 8
  %17 = call noundef ptr @_ZSt11lower_boundIPKN3ue27unicaseES1_ET_S4_S4_RKT0_(ptr noundef %15, ptr noundef %16, ptr noundef nonnull align 4 dereferenceable(8) %4)
  store ptr %17, ptr %7, align 8
  %18 = load ptr, ptr %7, align 8
  %19 = load ptr, ptr %6, align 8
  %20 = icmp ne ptr %18, %19
  br i1 %20, label %21, label %36

21:                                               ; preds = %1
  %22 = load ptr, ptr %7, align 8
  %23 = getelementptr inbounds nuw %"struct.ue2::unicase", ptr %22, i32 0, i32 0
  %24 = load i32, ptr %23, align 4
  %25 = load ptr, ptr %3, align 8
  %26 = load i32, ptr %25, align 4
  %27 = icmp eq i32 %24, %26
  br i1 %27, label %28, label %36

28:                                               ; preds = %21
  br label %29

29:                                               ; preds = %28
  br label %30

30:                                               ; preds = %29
  br label %31

31:                                               ; preds = %30
  %32 = load ptr, ptr %7, align 8
  %33 = getelementptr inbounds nuw %"struct.ue2::unicase", ptr %32, i32 0, i32 1
  %34 = load i32, ptr %33, align 4
  %35 = load ptr, ptr %3, align 8
  store i32 %34, ptr %35, align 4
  store i1 true, ptr %2, align 1
  store i32 1, ptr %8, align 4
  br label %37

36:                                               ; preds = %21, %1
  store i1 false, ptr %2, align 1
  store i32 1, ptr %8, align 4
  br label %37

37:                                               ; preds = %36, %31
  call void @llvm.lifetime.end.p0(i64 8, ptr %7) #13
  call void @llvm.lifetime.end.p0(i64 8, ptr %6) #13
  call void @llvm.lifetime.end.p0(i64 8, ptr %5) #13
  call void @llvm.lifetime.end.p0(i64 8, ptr %4) #13
  %38 = load i1, ptr %2, align 1
  ret i1 %38
}