; Function Attrs: mustprogress nofree norecurse nosync nounwind memory(argmem: readwrite) uwtable
define hidden noundef zeroext i1 @_ZN3ue29flip_caseEPj(ptr noundef captures(none) %0) local_unnamed_addr #3 {
  %2 = load i32, ptr %0, align 4
  br label %_ZSt7advanceIPKN3ue27unicaseElEvRT_T0_.exit.i.i

_ZSt7advanceIPKN3ue27unicaseElEvRT_T0_.exit.i.i:  ; preds = %_ZSt7advanceIPKN3ue27unicaseElEvRT_T0_.exit.i.i, %1
  %.026.i.i = phi ptr [ @_ZN3ue2L16ucp_caseless_defE, %1 ], [ %10, %_ZSt7advanceIPKN3ue27unicaseElEvRT_T0_.exit.i.i ]
  %.01125.i.i = phi i64 [ 2254, %1 ], [ %9, %_ZSt7advanceIPKN3ue27unicaseElEvRT_T0_.exit.i.i ]
  %3 = lshr i64 %.01125.i.i, 1
  %4 = getelementptr inbounds nuw %"struct.ue2::unicase", ptr %.026.i.i, i64 %3
  %.val.i.i.i = load i32, ptr %4, align 4
  %5 = icmp ult i32 %.val.i.i.i, %2
  %6 = getelementptr inbounds nuw i8, ptr %4, i64 8
  %7 = xor i64 %3, -1
  %8 = add nsw i64 %.01125.i.i, %7
  %9 = select i1 %5, i64 %8, i64 %3
  %10 = select i1 %5, ptr %6, ptr %.026.i.i
  %11 = icmp sgt i64 %9, 0
  br i1 %11, label %_ZSt7advanceIPKN3ue27unicaseElEvRT_T0_.exit.i.i, label %_ZSt11lower_boundIPKN3ue27unicaseES1_ET_S4_S4_RKT0_.exit, !llvm.loop !143

_ZSt11lower_boundIPKN3ue27unicaseES1_ET_S4_S4_RKT0_.exit: ; preds = %_ZSt7advanceIPKN3ue27unicaseElEvRT_T0_.exit.i.i
  %.not = icmp eq ptr %10, getelementptr inbounds nuw (i8, ptr @_ZN3ue2L16ucp_caseless_defE, i64 18032)
  br i1 %.not, label %18, label %12

12:                                               ; preds = %_ZSt11lower_boundIPKN3ue27unicaseES1_ET_S4_S4_RKT0_.exit
  %13 = load i32, ptr %10, align 4
  %14 = icmp eq i32 %13, %2
  br i1 %14, label %15, label %18

15:                                               ; preds = %12
  %16 = getelementptr inbounds nuw i8, ptr %10, i64 4
  %17 = load i32, ptr %16, align 4
  store i32 %17, ptr %0, align 4
  br label %18

18:                                               ; preds = %_ZSt11lower_boundIPKN3ue27unicaseES1_ET_S4_S4_RKT0_.exit, %12, %15
  %.0 = phi i1 [ true, %15 ], [ false, %12 ], [ false, %_ZSt11lower_boundIPKN3ue27unicaseES1_ET_S4_S4_RKT0_.exit ]
  ret i1 %.0
}